target datalayout = "e-m:e-p270:32:32-p271:32:32-p272:64:64-i64:64-i128:128-f80:128-n8:16:32:64-S128"
target triple = "x86_64-pc-linux-gnu"

%"class.icu_77::UCharCharacterIterator" = type { %"class.icu_77::CharacterIterator", ptr }
%"class.icu_77::CharacterIterator" = type { %"class.icu_77::ForwardCharacterIterator", i32, i32, i32, i32 }
%"class.icu_77::ForwardCharacterIterator" = type { %"class.icu_77::UObject" }
%"class.icu_77::UObject" = type { ptr }

; Function Attrs: mustprogress nounwind uwtable
define noundef zeroext i16 @_ZN6icu_7722UCharCharacterIterator5firstEv(ptr noundef nonnull align 8 dereferenceable(32) %0) unnamed_addr #0 align 2 {
  %2 = alloca i16, align 2
  %3 = alloca ptr, align 8
  store ptr %0, ptr %3, align 8, !tbaa !3
  %4 = load ptr, ptr %3, align 8
  %5 = getelementptr inbounds nuw %"class.icu_77::CharacterIterator", ptr %4, i32 0, i32 3
  %6 = load i32, ptr %5, align 8, !tbaa !24
  %7 = getelementptr inbounds nuw %"class.icu_77::CharacterIterator", ptr %4, i32 0, i32 2
  store i32 %6, ptr %7, align 4, !tbaa !23
  %8 = getelementptr inbounds nuw %"class.icu_77::CharacterIterator", ptr %4, i32 0, i32 2
  %9 = load i32, ptr %8, align 4, !tbaa !23
  %10 = getelementptr inbounds nuw %"class.icu_77::CharacterIterator", ptr %4, i32 0, i32 4
  %11 = load i32, ptr %10, align 4, !tbaa !25
  %12 = icmp slt i32 %9, %11
  br i1 %12, label %13, label %21

13:                                               ; preds = %1
  %14 = getelementptr inbounds nuw %"class.icu_77::UCharCharacterIterator", ptr %4, i32 0, i32 1
  %15 = load ptr, ptr %14, align 8, !tbaa !10
  %16 = getelementptr inbounds nuw %"class.icu_77::CharacterIterator", ptr %4, i32 0, i32 2
  %17 = load i32, ptr %16, align 4, !tbaa !23
  %18 = sext i32 %17 to i64
  %19 = getelementptr inbounds i16, ptr %15, i64 %18
  %20 = load i16, ptr %19, align 2, !tbaa !28
  store i16 %20, ptr %2, align 2
  br label %22

21:                                               ; preds = %1
  store i16 -1, ptr %2, align 2
  br label %22

22:                                               ; preds = %21, %13
  %23 = load i16, ptr %2, align 2
  ret i16 %23
}